(lp0
(ifactory
Point
p1
(dp2
S'position'
p3
F71.5
sS'pointType'
p4
S'start'
p5
sS'remainingDistance'
p6
F583.5
sba(ifactory
Point
p7
(dp8
g3
F63.0
sg4
S'solder'
p9
sg6
F380.0
sba(ifactory
Point
p10
(dp11
g3
F54.5
sg4
S'tabbing'
p12
sg6
F256.5
sba(ifactory
Point
p13
(dp14
g3
F54.5
sg4
S'solder'
p15
sg6
F388.5
sba(ifactory
Point
p16
(dp17
g3
F48.0
sg4
S'solette'
p18
sg6
F268.0
sba(ifactory
Point
p19
(dp20
g3
F40.5
sg4
S'tabbing'
p21
sg6
F270.5
sba(ifactory
Point
p22
(dp23
g3
F40.5
sg4
S'solder'
p24
sg6
F402.5
sba(ifactory
Point
p25
(dp26
g3
F34.0
sg4
S'solette'
p27
sg6
F282.0
sba(ifactory
Point
p28
(dp29
g3
F26.5
sg4
S'tabbing'
p30
sg6
F284.5
sba(ifactory
Point
p31
(dp32
g3
F26.5
sg4
S'solder'
p33
sg6
F416.5
sba(ifactory
Point
p34
(dp35
g3
F20.0
sg4
S'solette'
p36
sg6
F296.0
sba(ifactory
Point
p37
(dp38
g3
F12.5
sg4
S'tabbing'
p39
sg6
F298.5
sba(ifactory
Point
p40
(dp41
g3
F12.5
sg4
S'solder'
p42
sg6
F430.5
sba(ifactory
Point
p43
(dp44
g3
F5.0
sg4
S'solette'
p45
sg6
F311.0
sba(ifactory
Point
p46
(dp47
g3
F3.6500000000000057
sg4
S'solder'
p48
sg6
F439.35
sba(ifactory
Point
p49
(dp50
g3
F3.6500000000000057
sg4
S'tabbing'
p51
sg6
F307.35
sba(ifactory
Point
p52
(dp53
g3
F-4.849999999999994
sg4
S'end'
p54
sg6
F659.85
sba.